; Function Attrs: mustprogress uwtable
define noundef zeroext i1 @_ZN7rocksdb9lru_cache13LRUCacheShard3RefEPNS0_9LRUHandleE(ptr noundef nonnull align 64 dereferenceable(256) %this, ptr nocapture noundef %e) local_unnamed_addr #0 align 2 personality ptr @__gxx_personality_v0 {
entry:
  %mutex_ = getelementptr inbounds i8, ptr %this, i64 208
  tail call void @_ZN7rocksdb4port5Mutex4LockEv(ptr noundef nonnull align 8 dereferenceable(40) %mutex_)
  %refs.i = getelementptr inbounds i8, ptr %e, i64 60
  %0 = load i32, ptr %refs.i, align 4
  %inc.i = add i32 %0, 1
  store i32 %inc.i, ptr %refs.i, align 4
  invoke void @_ZN7rocksdb4port5Mutex6UnlockEv(ptr noundef nonnull align 8 dereferenceable(40) %mutex_)
          to label %_ZNSt10lock_guardIN7rocksdb4port5MutexEED2Ev.exit unwind label %terminate.lpad.i

terminate.lpad.i:                                 ; preds = %entry
  %1 = landingpad { ptr, i32 }
          catch ptr null
  %2 = extractvalue { ptr, i32 } %1, 0
  tail call void @__clang_call_terminate(ptr %2) #27
  unreachable

_ZNSt10lock_guardIN7rocksdb4port5MutexEED2Ev.exit: ; preds = %entry
  ret i1 true
}